target datalayout = "e-m:e-p270:32:32-p271:32:32-p272:64:64-i64:64-i128:128-f80:128-n8:16:32:64-S128"
target triple = "x86_64-unknown-linux-gnu"

%struct.QEMUIOVector = type { ptr, i32, %union.anon }
%union.anon = type { %struct.anon }
%struct.anon = type { i32, %struct.iovec }
%struct.iovec = type { ptr, i64 }
%struct.IDEBus = type { %struct.BusState, ptr, ptr, [2 x %struct.IDEState], ptr, i32, i32, ptr, i8, i8, ptr, i32, i8, i64, i32, %struct.PortioList, %struct.PortioList, ptr }
%struct.BusState = type { %struct.Object, ptr, ptr, ptr, i32, i8, i8, i32, %union.BusChildHead, %struct.BusStateEntry, %struct.ResettableState }
%struct.Object = type { ptr, ptr, ptr, i32, ptr }
%union.BusChildHead = type { %struct.QTailQLink }
%struct.QTailQLink = type { ptr, ptr }
%struct.BusStateEntry = type { ptr, ptr }
%struct.ResettableState = type { i32, i8, i8 }
%struct.IDEState = type { ptr, i8, i32, i32, i32, i32, i32, i32, i32, i64, i32, i32, [512 x i8], i32, [21 x i8], [41 x i8], i64, i8, i8, i32, i8, i8, i8, i8, i8, i8, i8, i8, i8, i8, i8, i8, i8, ptr, [9 x i8], %struct.unreported_events, i8, i8, i8, i8, i8, i32, i32, i32, i32, i32, i32, %struct.BlockAcctCookie, ptr, %struct.QEMUIOVector, %struct.anon.1, i64, i32, %struct.QEMUSGList, i32, ptr, ptr, ptr, ptr, i32, i32, i32, i8, ptr, i32, i8, i32, ptr, i32, i32, i8, i8, i32, i8, ptr, i32 }
%struct.unreported_events = type { i8, i8 }
%struct.BlockAcctCookie = type { i64, i64, i32 }
%struct.anon.1 = type { ptr }
%struct.QEMUSGList = type { ptr, i32, i32, i64, ptr, ptr }
%struct.PortioList = type { ptr, ptr, ptr, i32, ptr, ptr, ptr, i8 }

; Function Attrs: nounwind sspstrong uwtable
define internal void @qemu_irq_raise(ptr noundef %irq) #0 {
entry:
  %irq.addr = alloca ptr, align 8
  store ptr %irq, ptr %irq.addr, align 8
  %0 = load ptr, ptr %irq.addr, align 8
  call void @qemu_set_irq(ptr noundef %0, i32 noundef 1)
  ret void
}

; Function Attrs: nounwind sspstrong uwtable
define dso_local void @ide_bus_set_irq(ptr noundef %bus) #0 {
entry:
  %bus.addr = alloca ptr, align 8
  store ptr %bus, ptr %bus.addr, align 8
  %0 = load ptr, ptr %bus.addr, align 8
  %cmd = getelementptr inbounds %struct.IDEBus, ptr %0, i32 0, i32 9
  %1 = load i8, ptr %cmd, align 1
  %conv = zext i8 %1 to i32
  %and = and i32 %conv, 2
  %tobool = icmp ne i32 %and, 0
  br i1 %tobool, label %if.end, label %if.then

if.then:                                          ; preds = %entry
  %2 = load ptr, ptr %bus.addr, align 8
  %irq = getelementptr inbounds %struct.IDEBus, ptr %2, i32 0, i32 10
  %3 = load ptr, ptr %irq, align 8
  call void @qemu_irq_raise(ptr noundef %3)
  br label %if.end

if.end:                                           ; preds = %if.then, %entry
  ret void
}

; Function Attrs: nounwind sspstrong uwtable
define internal void @ide_set_signature(ptr noundef %s) #0 {
entry:
  %s.addr = alloca ptr, align 8
  store ptr %s, ptr %s.addr, align 8
  %0 = load ptr, ptr %s.addr, align 8
  %select = getelementptr inbounds %struct.IDEState, ptr %0, i32 0, i32 28
  %1 = load i8, ptr %select, align 8
  %conv = zext i8 %1 to i32
  %and = and i32 %conv, -16
  %conv1 = trunc i32 %and to i8
  store i8 %conv1, ptr %select, align 8
  %2 = load ptr, ptr %s.addr, align 8
  %nsector = getelementptr inbounds %struct.IDEState, ptr %2, i32 0, i32 19
  store i32 1, ptr %nsector, align 4
  %3 = load ptr, ptr %s.addr, align 8
  %sector = getelementptr inbounds %struct.IDEState, ptr %3, i32 0, i32 20
  store i8 1, ptr %sector, align 8
  %4 = load ptr, ptr %s.addr, align 8
  %drive_kind = getelementptr inbounds %struct.IDEState, ptr %4, i32 0, i32 2
  %5 = load i32, ptr %drive_kind, align 4
  %cmp = icmp eq i32 %5, 1
  br i1 %cmp, label %if.then, label %if.else

if.then:                                          ; preds = %entry
  %6 = load ptr, ptr %s.addr, align 8
  %lcyl = getelementptr inbounds %struct.IDEState, ptr %6, i32 0, i32 21
  store i8 20, ptr %lcyl, align 1
  %7 = load ptr, ptr %s.addr, align 8
  %hcyl = getelementptr inbounds %struct.IDEState, ptr %7, i32 0, i32 22
  store i8 -21, ptr %hcyl, align 2
  br label %if.end9

if.else:                                          ; preds = %entry
  %8 = load ptr, ptr %s.addr, align 8
  %blk = getelementptr inbounds %struct.IDEState, ptr %8, i32 0, i32 33
  %9 = load ptr, ptr %blk, align 8
  %tobool = icmp ne ptr %9, null
  br i1 %tobool, label %if.then3, label %if.else6

if.then3:                                         ; preds = %if.else
  %10 = load ptr, ptr %s.addr, align 8
  %lcyl4 = getelementptr inbounds %struct.IDEState, ptr %10, i32 0, i32 21
  store i8 0, ptr %lcyl4, align 1
  %11 = load ptr, ptr %s.addr, align 8
  %hcyl5 = getelementptr inbounds %struct.IDEState, ptr %11, i32 0, i32 22
  store i8 0, ptr %hcyl5, align 2
  br label %if.end

if.else6:                                         ; preds = %if.else
  %12 = load ptr, ptr %s.addr, align 8
  %lcyl7 = getelementptr inbounds %struct.IDEState, ptr %12, i32 0, i32 21
  store i8 -1, ptr %lcyl7, align 1
  %13 = load ptr, ptr %s.addr, align 8
  %hcyl8 = getelementptr inbounds %struct.IDEState, ptr %13, i32 0, i32 22
  store i8 -1, ptr %hcyl8, align 2
  br label %if.end

if.end:                                           ; preds = %if.else6, %if.then3
  br label %if.end9

if.end9:                                          ; preds = %if.end, %if.then
  ret void
}

; Function Attrs: nounwind sspstrong uwtable
define internal zeroext i1 @cmd_exec_dev_diagnostic(ptr noundef %s, i8 noundef zeroext %cmd) #0 {
entry:
  %s.addr = alloca ptr, align 8
  %cmd.addr = alloca i8, align 1
  store ptr %s, ptr %s.addr, align 8
  store i8 %cmd, ptr %cmd.addr, align 1
  %0 = load ptr, ptr %s.addr, align 8
  %select = getelementptr inbounds %struct.IDEState, ptr %0, i32 0, i32 28
  store i8 -96, ptr %select, align 8
  %1 = load ptr, ptr %s.addr, align 8
  call void @ide_set_signature(ptr noundef %1)
  %2 = load ptr, ptr %s.addr, align 8
  %drive_kind = getelementptr inbounds %struct.IDEState, ptr %2, i32 0, i32 2
  %3 = load i32, ptr %drive_kind, align 4
  %cmp = icmp eq i32 %3, 1
  br i1 %cmp, label %if.then, label %if.else

if.then:                                          ; preds = %entry
  %4 = load ptr, ptr %s.addr, align 8
  %status = getelementptr inbounds %struct.IDEState, ptr %4, i32 0, i32 29
  store i8 0, ptr %status, align 1
  %5 = load ptr, ptr %s.addr, align 8
  %error = getelementptr inbounds %struct.IDEState, ptr %5, i32 0, i32 18
  store i8 1, ptr %error, align 1
  br label %if.end

if.else:                                          ; preds = %entry
  %6 = load ptr, ptr %s.addr, align 8
  %status1 = getelementptr inbounds %struct.IDEState, ptr %6, i32 0, i32 29
  store i8 80, ptr %status1, align 1
  %7 = load ptr, ptr %s.addr, align 8
  %error2 = getelementptr inbounds %struct.IDEState, ptr %7, i32 0, i32 18
  store i8 1, ptr %error2, align 1
  %8 = load ptr, ptr %s.addr, align 8
  %bus = getelementptr inbounds %struct.IDEState, ptr %8, i32 0, i32 0
  %9 = load ptr, ptr %bus, align 8
  call void @ide_bus_set_irq(ptr noundef %9)
  br label %if.end

if.end:                                           ; preds = %if.else, %if.then
  ret i1 false
}

; Function Attrs: nounwind sspstrong uwtable
define internal void @ide_transfer_halt(ptr noundef %s) #0 {
entry:
  %s.addr = alloca ptr, align 8
  store ptr %s, ptr %s.addr, align 8
  %0 = load ptr, ptr %s.addr, align 8
  %end_transfer_func = getelementptr inbounds %struct.IDEState, ptr %0, i32 0, i32 55
  store ptr @ide_transfer_stop, ptr %end_transfer_func, align 8
  %1 = load ptr, ptr %s.addr, align 8
  %io_buffer = getelementptr inbounds %struct.IDEState, ptr %1, i32 0, i32 58
  %2 = load ptr, ptr %io_buffer, align 8
  %3 = load ptr, ptr %s.addr, align 8
  %data_ptr = getelementptr inbounds %struct.IDEState, ptr %3, i32 0, i32 56
  store ptr %2, ptr %data_ptr, align 8
  %4 = load ptr, ptr %s.addr, align 8
  %io_buffer1 = getelementptr inbounds %struct.IDEState, ptr %4, i32 0, i32 58
  %5 = load ptr, ptr %io_buffer1, align 8
  %6 = load ptr, ptr %s.addr, align 8
  %data_end = getelementptr inbounds %struct.IDEState, ptr %6, i32 0, i32 57
  store ptr %5, ptr %data_end, align 8
  %7 = load ptr, ptr %s.addr, align 8
  %status = getelementptr inbounds %struct.IDEState, ptr %7, i32 0, i32 29
  %8 = load i8, ptr %status, align 1
  %conv = zext i8 %8 to i32
  %and = and i32 %conv, -9
  %conv2 = trunc i32 %and to i8
  store i8 %conv2, ptr %status, align 1
  ret void
}

; Function Attrs: nounwind sspstrong uwtable
define internal void @ide_perform_srst(ptr noundef %s) #0 {
entry:
  %s.addr = alloca ptr, align 8
  store ptr %s, ptr %s.addr, align 8
  %0 = load ptr, ptr %s.addr, align 8
  %status = getelementptr inbounds %struct.IDEState, ptr %0, i32 0, i32 29
  %1 = load i8, ptr %status, align 1
  %conv = zext i8 %1 to i32
  %or = or i32 %conv, 128
  %conv1 = trunc i32 %or to i8
  store i8 %conv1, ptr %status, align 1
  %2 = load ptr, ptr %s.addr, align 8
  call void @ide_transfer_halt(ptr noundef %2)
  %3 = load ptr, ptr %s.addr, align 8
  call void @ide_cancel_dma_sync(ptr noundef %3)
  %4 = load ptr, ptr %s.addr, align 8
  call void @ide_reset(ptr noundef %4)
  %5 = load ptr, ptr %s.addr, align 8
  %call = call zeroext i1 @cmd_exec_dev_diagnostic(ptr noundef %5, i8 noundef zeroext -112)
  ret void
}

; Function Attrs: nounwind sspstrong uwtable
define internal void @ide_bus_perform_srst(ptr noundef %opaque) #0 {
entry:
  %opaque.addr = alloca ptr, align 8
  %bus = alloca ptr, align 8
  %s = alloca ptr, align 8
  %i = alloca i32, align 4
  store ptr %opaque, ptr %opaque.addr, align 8
  %0 = load ptr, ptr %opaque.addr, align 8
  store ptr %0, ptr %bus, align 8
  store i32 0, ptr %i, align 4
  br label %for.cond

for.cond:                                         ; preds = %for.inc, %entry
  %1 = load i32, ptr %i, align 4
  %cmp = icmp slt i32 %1, 2
  br i1 %cmp, label %for.body, label %for.end

for.body:                                         ; preds = %for.cond
  %2 = load ptr, ptr %bus, align 8
  %ifs = getelementptr inbounds %struct.IDEBus, ptr %2, i32 0, i32 3
  %3 = load i32, ptr %i, align 4
  %idxprom = sext i32 %3 to i64
  %arrayidx = getelementptr [2 x %struct.IDEState], ptr %ifs, i64 0, i64 %idxprom
  store ptr %arrayidx, ptr %s, align 8
  %4 = load ptr, ptr %s, align 8
  call void @ide_perform_srst(ptr noundef %4)
  br label %for.inc

for.inc:                                          ; preds = %for.body
  %5 = load i32, ptr %i, align 4
  %inc = add i32 %5, 1
  store i32 %inc, ptr %i, align 4
  br label %for.cond, !llvm.loop !11

for.end:                                          ; preds = %for.cond
  %6 = load ptr, ptr %bus, align 8
  %cmd = getelementptr inbounds %struct.IDEBus, ptr %6, i32 0, i32 9
  %7 = load i8, ptr %cmd, align 1
  %conv = zext i8 %7 to i32
  %and = and i32 %conv, -5
  %conv1 = trunc i32 %and to i8
  store i8 %conv1, ptr %cmd, align 1
  ret void
}