; Function Attrs: nounwind sspstrong uwtable
define internal void @ide_bus_perform_srst(ptr noundef %opaque) #0 {
entry:
  %ifs = getelementptr inbounds nuw i8, ptr %opaque, i64 136
  br label %for.body

for.body:                                         ; preds = %entry, %ide_perform_srst.exit
  %cmp = phi i1 [ true, %entry ], [ false, %ide_perform_srst.exit ]
  %indvars.iv = phi i64 [ 0, %entry ], [ 1, %ide_perform_srst.exit ]
  %arrayidx = getelementptr [2 x %struct.IDEState], ptr %ifs, i64 0, i64 %indvars.iv
  %status.i = getelementptr inbounds nuw i8, ptr %arrayidx, i64 665
  %0 = load i8, ptr %status.i, align 1
  %end_transfer_func.i.i = getelementptr inbounds nuw i8, ptr %arrayidx, i64 864
  store ptr @ide_transfer_stop, ptr %end_transfer_func.i.i, align 8
  %io_buffer.i.i = getelementptr inbounds nuw i8, ptr %arrayidx, i64 888
  %1 = load ptr, ptr %io_buffer.i.i, align 8
  %data_ptr.i.i = getelementptr inbounds nuw i8, ptr %arrayidx, i64 872
  store ptr %1, ptr %data_ptr.i.i, align 8
  %data_end.i.i = getelementptr inbounds nuw i8, ptr %arrayidx, i64 880
  store ptr %1, ptr %data_end.i.i, align 8
  %2 = and i8 %0, 119
  %3 = or disjoint i8 %2, -128
  store i8 %3, ptr %status.i, align 1
  tail call void @ide_cancel_dma_sync(ptr noundef %arrayidx)
  tail call fastcc void @ide_reset(ptr noundef %arrayidx)
  %select.i.i = getelementptr inbounds nuw i8, ptr %arrayidx, i64 664
  store i8 -96, ptr %select.i.i, align 8
  %nsector.i.i.i = getelementptr inbounds nuw i8, ptr %arrayidx, i64 652
  store i32 1, ptr %nsector.i.i.i, align 4
  %sector.i.i.i = getelementptr inbounds nuw i8, ptr %arrayidx, i64 656
  store i8 1, ptr %sector.i.i.i, align 8
  %drive_kind.i.i.i = getelementptr inbounds nuw i8, ptr %arrayidx, i64 12
  %4 = load i32, ptr %drive_kind.i.i.i, align 4
  %cmp.i.i.i = icmp eq i32 %4, 1
  br i1 %cmp.i.i.i, label %if.then.i.i, label %if.else.i.i.i

if.else.i.i.i:                                    ; preds = %for.body
  %blk.i.i.i = getelementptr inbounds nuw i8, ptr %arrayidx, i64 672
  %5 = load ptr, ptr %blk.i.i.i, align 8
  %tobool.not.i.i.i = icmp eq ptr %5, null
  %lcyl7.i.i.i = getelementptr inbounds nuw i8, ptr %arrayidx, i64 657
  %hcyl8.i.i.i = getelementptr inbounds nuw i8, ptr %arrayidx, i64 658
  %..i.i = sext i1 %tobool.not.i.i.i to i8
  store i8 %..i.i, ptr %lcyl7.i.i.i, align 1
  store i8 %..i.i, ptr %hcyl8.i.i.i, align 2
  store i8 80, ptr %status.i, align 1
  %error2.i.i = getelementptr inbounds nuw i8, ptr %arrayidx, i64 649
  store i8 1, ptr %error2.i.i, align 1
  %6 = load ptr, ptr %arrayidx, align 8
  %cmd.i.i.i = getelementptr inbounds nuw i8, ptr %6, i64 2129
  %7 = load i8, ptr %cmd.i.i.i, align 1
  %8 = and i8 %7, 2
  %tobool.not.i8.i.i = icmp eq i8 %8, 0
  br i1 %tobool.not.i8.i.i, label %if.then.i9.i.i, label %ide_perform_srst.exit

if.then.i.i:                                      ; preds = %for.body
  %lcyl.i.i.i = getelementptr inbounds nuw i8, ptr %arrayidx, i64 657
  store i8 20, ptr %lcyl.i.i.i, align 1
  %hcyl.i.i.i = getelementptr inbounds nuw i8, ptr %arrayidx, i64 658
  store i8 -21, ptr %hcyl.i.i.i, align 2
  store i8 0, ptr %status.i, align 1
  %error.i.i = getelementptr inbounds nuw i8, ptr %arrayidx, i64 649
  store i8 1, ptr %error.i.i, align 1
  br label %ide_perform_srst.exit

if.then.i9.i.i:                                   ; preds = %if.else.i.i.i
  %irq.i.i.i = getelementptr inbounds nuw i8, ptr %6, i64 2136
  %9 = load ptr, ptr %irq.i.i.i, align 8
  tail call void @qemu_set_irq(ptr noundef %9, i32 noundef 1) #17
  br label %ide_perform_srst.exit

ide_perform_srst.exit:                            ; preds = %if.else.i.i.i, %if.then.i.i, %if.then.i9.i.i
  br i1 %cmp, label %for.body, label %for.end, !llvm.loop !10

for.end:                                          ; preds = %ide_perform_srst.exit
  %cmd = getelementptr inbounds nuw i8, ptr %opaque, i64 2129
  %10 = load i8, ptr %cmd, align 1
  %11 = and i8 %10, -5
  store i8 %11, ptr %cmd, align 1
  ret void
}